; Function Attrs: mustprogress uwtable
define noundef zeroext i1 @_ZN14VrmlTranslator7Scanner8Comment0Ev(ptr nocapture noundef nonnull align 8 dereferenceable(160) %0) local_unnamed_addr #2 align 2 {
  %2 = getelementptr inbounds i8, ptr %0, i64 136
  %3 = load i32, ptr %2, align 8
  %4 = getelementptr inbounds i8, ptr %0, i64 144
  %5 = load i32, ptr %4, align 8
  %6 = icmp sgt i32 %5, 0
  br i1 %6, label %7, label %13

7:                                                ; preds = %1
  %8 = getelementptr inbounds i8, ptr %0, i64 32
  %9 = load i8, ptr %8, align 8
  %10 = zext i8 %9 to i32
  %11 = getelementptr inbounds i8, ptr %0, i64 128
  store i32 %10, ptr %11, align 8
  %12 = add nsw i32 %5, -1
  store i32 %12, ptr %4, align 8
  br label %_ZN14VrmlTranslator7Scanner6NextChEv.exit

13:                                               ; preds = %1
  %14 = getelementptr inbounds i8, ptr %0, i64 152
  %15 = load ptr, ptr %14, align 8
  %16 = load ptr, ptr %15, align 8
  %17 = getelementptr inbounds i8, ptr %16, i64 48
  %18 = load ptr, ptr %17, align 8
  %19 = tail call noundef i32 %18(ptr noundef nonnull align 8 dereferenceable(49) %15)
  %20 = getelementptr inbounds i8, ptr %0, i64 132
  store i32 %19, ptr %20, align 4
  %21 = load ptr, ptr %14, align 8
  %22 = load ptr, ptr %21, align 8
  %23 = getelementptr inbounds i8, ptr %22, i64 24
  %24 = load ptr, ptr %23, align 8
  %25 = tail call noundef i32 %24(ptr noundef nonnull align 8 dereferenceable(49) %21)
  %26 = getelementptr inbounds i8, ptr %0, i64 128
  store i32 %25, ptr %26, align 8
  %27 = getelementptr inbounds i8, ptr %0, i64 140
  %28 = load i32, ptr %27, align 4
  %29 = add nsw i32 %28, 1
  store i32 %29, ptr %27, align 4
  %30 = icmp eq i32 %25, 13
  br i1 %30, label %31, label %41

31:                                               ; preds = %13
  %32 = load ptr, ptr %14, align 8
  %33 = load ptr, ptr %32, align 8
  %34 = getelementptr inbounds i8, ptr %33, i64 32
  %35 = load ptr, ptr %34, align 8
  %36 = tail call noundef i32 %35(ptr noundef nonnull align 8 dereferenceable(49) %32)
  %.not.i = icmp eq i32 %36, 10
  br i1 %.not.i, label %._crit_edge.i, label %37

._crit_edge.i:                                    ; preds = %31
  %.pre.i = load i32, ptr %26, align 8
  br label %41

37:                                               ; preds = %31
  %38 = getelementptr inbounds i8, ptr %0, i64 32
  %39 = load i8, ptr %38, align 8
  %40 = zext i8 %39 to i32
  store i32 %40, ptr %26, align 8
  br label %41

41:                                               ; preds = %37, %._crit_edge.i, %13
  %42 = phi i32 [ %.pre.i, %._crit_edge.i ], [ %40, %37 ], [ %25, %13 ]
  %43 = getelementptr inbounds i8, ptr %0, i64 32
  %44 = load i8, ptr %43, align 8
  %45 = zext i8 %44 to i32
  %46 = icmp eq i32 %42, %45
  br i1 %46, label %47, label %_ZN14VrmlTranslator7Scanner6NextChEv.exit

47:                                               ; preds = %41
  %48 = load i32, ptr %2, align 8
  %49 = add nsw i32 %48, 1
  store i32 %49, ptr %2, align 8
  store i32 0, ptr %27, align 4
  br label %_ZN14VrmlTranslator7Scanner6NextChEv.exit

_ZN14VrmlTranslator7Scanner6NextChEv.exit:        ; preds = %7, %41, %47
  %50 = phi i8 [ %9, %7 ], [ %44, %41 ], [ %44, %47 ]
  %51 = phi i32 [ %10, %7 ], [ %42, %41 ], [ %42, %47 ]
  %52 = getelementptr inbounds i8, ptr %0, i64 128
  %53 = icmp eq i32 %51, 10
  br i1 %53, label %._crit_edge, label %.lr.ph

.lr.ph:                                           ; preds = %_ZN14VrmlTranslator7Scanner6NextChEv.exit
  %54 = getelementptr inbounds i8, ptr %0, i64 152
  %55 = getelementptr inbounds i8, ptr %0, i64 132
  %56 = getelementptr inbounds i8, ptr %0, i64 140
  %57 = getelementptr inbounds i8, ptr %0, i64 32
  br label %101

._crit_edge:                                      ; preds = %_ZN14VrmlTranslator7Scanner6NextChEv.exit14, %_ZN14VrmlTranslator7Scanner6NextChEv.exit
  %58 = phi i8 [ %50, %_ZN14VrmlTranslator7Scanner6NextChEv.exit ], [ %143, %_ZN14VrmlTranslator7Scanner6NextChEv.exit14 ]
  %59 = load i32, ptr %2, align 8
  %60 = sub nsw i32 %59, %3
  store i32 %60, ptr %4, align 8
  %61 = icmp sgt i32 %60, 0
  br i1 %61, label %62, label %65

62:                                               ; preds = %._crit_edge
  %63 = zext i8 %58 to i32
  store i32 %63, ptr %52, align 8
  %64 = add nsw i32 %60, -1
  store i32 %64, ptr %4, align 8
  br label %_ZN14VrmlTranslator7Scanner6NextChEv.exit10

65:                                               ; preds = %._crit_edge
  %66 = getelementptr inbounds i8, ptr %0, i64 152
  %67 = load ptr, ptr %66, align 8
  %68 = load ptr, ptr %67, align 8
  %69 = getelementptr inbounds i8, ptr %68, i64 48
  %70 = load ptr, ptr %69, align 8
  %71 = tail call noundef i32 %70(ptr noundef nonnull align 8 dereferenceable(49) %67)
  %72 = getelementptr inbounds i8, ptr %0, i64 132
  store i32 %71, ptr %72, align 4
  %73 = load ptr, ptr %66, align 8
  %74 = load ptr, ptr %73, align 8
  %75 = getelementptr inbounds i8, ptr %74, i64 24
  %76 = load ptr, ptr %75, align 8
  %77 = tail call noundef i32 %76(ptr noundef nonnull align 8 dereferenceable(49) %73)
  store i32 %77, ptr %52, align 8
  %78 = getelementptr inbounds i8, ptr %0, i64 140
  %79 = load i32, ptr %78, align 4
  %80 = add nsw i32 %79, 1
  store i32 %80, ptr %78, align 4
  %81 = icmp eq i32 %77, 13
  br i1 %81, label %82, label %92

82:                                               ; preds = %65
  %83 = load ptr, ptr %66, align 8
  %84 = load ptr, ptr %83, align 8
  %85 = getelementptr inbounds i8, ptr %84, i64 32
  %86 = load ptr, ptr %85, align 8
  %87 = tail call noundef i32 %86(ptr noundef nonnull align 8 dereferenceable(49) %83)
  %.not.i7 = icmp eq i32 %87, 10
  br i1 %.not.i7, label %._crit_edge.i8, label %88

._crit_edge.i8:                                   ; preds = %82
  %.pre.i9 = load i32, ptr %52, align 8
  br label %92

88:                                               ; preds = %82
  %89 = getelementptr inbounds i8, ptr %0, i64 32
  %90 = load i8, ptr %89, align 8
  %91 = zext i8 %90 to i32
  store i32 %91, ptr %52, align 8
  br label %92

92:                                               ; preds = %88, %._crit_edge.i8, %65
  %93 = phi i32 [ %.pre.i9, %._crit_edge.i8 ], [ %91, %88 ], [ %77, %65 ]
  %94 = getelementptr inbounds i8, ptr %0, i64 32
  %95 = load i8, ptr %94, align 8
  %96 = zext i8 %95 to i32
  %97 = icmp eq i32 %93, %96
  br i1 %97, label %98, label %_ZN14VrmlTranslator7Scanner6NextChEv.exit10

98:                                               ; preds = %92
  %99 = load i32, ptr %2, align 8
  %100 = add nsw i32 %99, 1
  store i32 %100, ptr %2, align 8
  store i32 0, ptr %78, align 4
  br label %_ZN14VrmlTranslator7Scanner6NextChEv.exit10

101:                                              ; preds = %.lr.ph, %_ZN14VrmlTranslator7Scanner6NextChEv.exit14
  %102 = phi i8 [ %50, %.lr.ph ], [ %143, %_ZN14VrmlTranslator7Scanner6NextChEv.exit14 ]
  %103 = phi i32 [ %51, %.lr.ph ], [ %142, %_ZN14VrmlTranslator7Scanner6NextChEv.exit14 ]
  %104 = icmp eq i32 %103, 65536
  br i1 %104, label %_ZN14VrmlTranslator7Scanner6NextChEv.exit10, label %105

105:                                              ; preds = %101
  %106 = load i32, ptr %4, align 8
  %107 = icmp sgt i32 %106, 0
  br i1 %107, label %108, label %111

108:                                              ; preds = %105
  %109 = zext i8 %102 to i32
  store i32 %109, ptr %52, align 8
  %110 = add nsw i32 %106, -1
  store i32 %110, ptr %4, align 8
  br label %_ZN14VrmlTranslator7Scanner6NextChEv.exit14

111:                                              ; preds = %105
  %112 = load ptr, ptr %54, align 8
  %113 = load ptr, ptr %112, align 8
  %114 = getelementptr inbounds i8, ptr %113, i64 48
  %115 = load ptr, ptr %114, align 8
  %116 = tail call noundef i32 %115(ptr noundef nonnull align 8 dereferenceable(49) %112)
  store i32 %116, ptr %55, align 4
  %117 = load ptr, ptr %54, align 8
  %118 = load ptr, ptr %117, align 8
  %119 = getelementptr inbounds i8, ptr %118, i64 24
  %120 = load ptr, ptr %119, align 8
  %121 = tail call noundef i32 %120(ptr noundef nonnull align 8 dereferenceable(49) %117)
  store i32 %121, ptr %52, align 8
  %122 = load i32, ptr %56, align 4
  %123 = add nsw i32 %122, 1
  store i32 %123, ptr %56, align 4
  %124 = icmp eq i32 %121, 13
  br i1 %124, label %125, label %134

125:                                              ; preds = %111
  %126 = load ptr, ptr %54, align 8
  %127 = load ptr, ptr %126, align 8
  %128 = getelementptr inbounds i8, ptr %127, i64 32
  %129 = load ptr, ptr %128, align 8
  %130 = tail call noundef i32 %129(ptr noundef nonnull align 8 dereferenceable(49) %126)
  %.not.i11 = icmp eq i32 %130, 10
  br i1 %.not.i11, label %._crit_edge.i12, label %131

._crit_edge.i12:                                  ; preds = %125
  %.pre.i13 = load i32, ptr %52, align 8
  br label %134

131:                                              ; preds = %125
  %132 = load i8, ptr %57, align 8
  %133 = zext i8 %132 to i32
  store i32 %133, ptr %52, align 8
  br label %134

134:                                              ; preds = %131, %._crit_edge.i12, %111
  %135 = phi i32 [ %.pre.i13, %._crit_edge.i12 ], [ %133, %131 ], [ %121, %111 ]
  %136 = load i8, ptr %57, align 8
  %137 = zext i8 %136 to i32
  %138 = icmp eq i32 %135, %137
  br i1 %138, label %139, label %_ZN14VrmlTranslator7Scanner6NextChEv.exit14

139:                                              ; preds = %134
  %140 = load i32, ptr %2, align 8
  %141 = add nsw i32 %140, 1
  store i32 %141, ptr %2, align 8
  store i32 0, ptr %56, align 4
  br label %_ZN14VrmlTranslator7Scanner6NextChEv.exit14

_ZN14VrmlTranslator7Scanner6NextChEv.exit14:      ; preds = %108, %134, %139
  %142 = phi i32 [ %109, %108 ], [ %135, %134 ], [ %135, %139 ]
  %143 = phi i8 [ %102, %108 ], [ %136, %134 ], [ %136, %139 ]
  %144 = icmp eq i32 %142, 10
  br i1 %144, label %._crit_edge, label %101, !llvm.loop !27

_ZN14VrmlTranslator7Scanner6NextChEv.exit10:      ; preds = %101, %98, %92, %62
  %145 = phi i1 [ true, %98 ], [ true, %92 ], [ true, %62 ], [ false, %101 ]
  ret i1 %145
}